target datalayout = "e-m:e-p270:32:32-p271:32:32-p272:64:64-i64:64-i128:128-f80:128-n8:16:32:64-S128"
target triple = "x86_64-pc-linux-gnu"

%struct.TclStubs = type { i32, ptr, ptr, ptr, ptr, ptr, ptr, ptr, ptr, ptr, ptr, ptr, ptr, ptr, ptr, ptr, ptr, ptr, ptr, ptr, ptr, ptr, ptr, ptr, ptr, ptr, ptr, ptr, ptr, ptr, ptr, ptr, ptr, ptr, ptr, ptr, ptr, ptr, ptr, ptr, ptr, ptr, ptr, ptr, ptr, ptr, ptr, ptr, ptr, ptr, ptr, ptr, ptr, ptr, ptr, ptr, ptr, ptr, ptr, ptr, ptr, ptr, ptr, ptr, ptr, ptr, ptr, ptr, ptr, ptr, ptr, ptr, ptr, ptr, ptr, ptr, ptr, ptr, ptr, ptr, ptr, ptr, ptr, ptr, ptr, ptr, ptr, ptr, ptr, ptr, ptr, ptr, ptr, ptr, ptr, ptr, ptr, ptr, ptr, ptr, ptr, ptr, ptr, ptr, ptr, ptr, ptr, ptr, ptr, ptr, ptr, ptr, ptr, ptr, ptr, ptr, ptr, ptr, ptr, ptr, ptr, ptr, ptr, ptr, ptr, ptr, ptr, ptr, ptr, ptr, ptr, ptr, ptr, ptr, ptr, ptr, ptr, ptr, ptr, ptr, ptr, ptr, ptr, ptr, ptr, ptr, ptr, ptr, ptr, ptr, ptr, ptr, ptr, ptr, ptr, ptr, ptr, ptr, ptr, ptr, ptr, ptr, ptr, ptr, ptr, ptr, ptr, ptr, ptr, ptr, ptr, ptr, ptr, ptr, ptr, ptr, ptr, ptr, ptr, ptr, ptr, ptr, ptr, ptr, ptr, ptr, ptr, ptr, ptr, ptr, ptr, ptr, ptr, ptr, ptr, ptr, ptr, ptr, ptr, ptr, ptr, ptr, ptr, ptr, ptr, ptr, ptr, ptr, ptr, ptr, ptr, ptr, ptr, ptr, ptr, ptr, ptr, ptr, ptr, ptr, ptr, ptr, ptr, ptr, ptr, ptr, ptr, ptr, ptr, ptr, ptr, ptr, ptr, ptr, ptr, ptr, ptr, ptr, ptr, ptr, ptr, ptr, ptr, ptr, ptr, ptr, ptr, ptr, ptr, ptr, ptr, ptr, ptr, ptr, ptr, ptr, ptr, ptr, ptr, ptr, ptr, ptr, ptr, ptr, ptr, ptr, ptr, ptr, ptr, ptr, ptr, ptr, ptr, ptr, ptr, ptr, ptr, ptr, ptr, ptr, ptr, ptr, ptr, ptr, ptr, ptr, ptr, ptr, ptr, ptr, ptr, ptr, ptr, ptr, ptr, ptr, ptr, ptr, ptr, ptr, ptr, ptr, ptr, ptr, ptr, ptr, ptr, ptr, ptr, ptr, ptr, ptr, ptr, ptr, ptr, ptr, ptr, ptr, ptr, ptr, ptr, ptr, ptr, ptr, ptr, ptr, ptr, ptr, ptr, ptr, ptr, ptr, ptr, ptr, ptr, ptr, ptr, ptr, ptr, ptr, ptr, ptr, ptr, ptr, ptr, ptr, ptr, ptr, ptr, ptr, ptr, ptr, ptr, ptr, ptr, ptr, ptr, ptr, ptr, ptr, ptr, ptr, ptr, ptr, ptr, ptr, ptr, ptr, ptr, ptr, ptr, ptr, ptr, ptr, ptr, ptr, ptr, ptr, ptr, ptr, ptr, ptr, ptr, ptr, ptr, ptr, ptr, ptr, ptr, ptr, ptr, ptr, ptr, ptr, ptr, ptr, ptr, ptr, ptr, ptr, ptr, ptr, ptr, ptr, ptr, ptr, ptr, ptr, ptr, ptr, ptr, ptr, ptr, ptr, ptr, ptr, ptr, ptr, ptr, ptr, ptr, ptr, ptr, ptr, ptr, ptr, ptr, ptr, ptr, ptr, ptr, ptr, ptr, ptr, ptr, ptr, ptr, ptr, ptr, ptr, ptr, ptr, ptr, ptr, ptr, ptr, ptr, ptr, ptr, ptr, ptr, ptr, ptr, ptr, ptr, ptr, ptr, ptr, ptr, ptr, ptr, ptr, ptr, ptr, ptr, ptr, ptr, ptr, ptr, ptr, ptr, ptr, ptr, ptr, ptr, ptr, ptr, ptr, ptr, ptr, ptr, ptr, ptr, ptr, ptr, ptr, ptr, ptr, ptr, ptr, ptr, ptr, ptr, ptr, ptr, ptr, ptr, ptr, ptr, ptr, ptr, ptr, ptr, ptr, ptr, ptr, ptr, ptr, ptr, ptr, ptr, ptr, ptr, ptr, ptr, ptr, ptr, ptr, ptr, ptr, ptr, ptr, ptr, ptr, ptr, ptr, ptr, ptr, ptr, ptr, ptr, ptr, ptr, ptr, ptr, ptr, ptr, ptr, ptr, ptr, ptr, ptr, ptr, ptr, ptr, ptr, ptr, ptr, ptr, ptr, ptr, ptr, ptr, ptr, ptr, ptr, ptr, ptr, ptr, ptr, ptr, ptr, ptr, ptr, ptr, ptr, ptr, ptr, ptr, ptr, ptr, ptr, ptr, ptr, ptr, ptr, ptr, ptr, ptr, ptr, ptr, ptr, ptr, ptr, ptr, ptr, ptr, ptr, ptr, ptr, ptr, ptr, ptr, ptr, ptr, ptr, ptr, ptr, ptr, ptr, ptr, ptr, ptr, ptr, ptr, ptr, ptr, ptr, ptr, ptr, ptr, ptr, ptr, ptr, ptr, ptr, ptr, ptr, ptr, ptr, ptr, ptr, ptr, ptr, ptr, ptr, ptr, ptr, ptr, ptr, ptr, ptr, ptr, ptr, ptr, ptr, ptr, ptr, ptr, ptr, ptr, ptr, ptr, ptr, ptr, ptr, ptr, ptr, ptr, ptr, ptr, ptr, ptr, ptr, ptr, ptr, ptr, ptr, ptr, ptr, ptr, ptr, ptr }
%struct.SqliteDb = type { ptr, ptr, ptr, ptr, ptr, ptr, ptr, ptr, ptr, ptr, i32, ptr, ptr, ptr, ptr, ptr, ptr, ptr, ptr, i32, ptr, ptr, ptr, i32, i32, ptr, i32, i32, i32, i32, i32, i32, i32 }

@tclStubsPtr = external global ptr, align 8
@.str.121 = private unnamed_addr constant [9 x i8] c"ROLLBACK\00", align 1
@DbTransPostCmd.azEnd = internal constant [4 x ptr] [ptr @.str.227, ptr @.str.119, ptr @.str.228, ptr @.str.121], align 16

; Function Attrs: nounwind uwtable
define internal i32 @DbTransPostCmd(ptr noundef %0, ptr noundef %1, i32 noundef %2) #0 {
  %4 = alloca ptr, align 8
  %5 = alloca ptr, align 8
  %6 = alloca i32, align 4
  %7 = alloca ptr, align 8
  %8 = alloca i32, align 4
  %9 = alloca ptr, align 8
  store ptr %0, ptr %4, align 8, !tbaa !15
  store ptr %1, ptr %5, align 8, !tbaa !3
  store i32 %2, ptr %6, align 4, !tbaa !8
  call void @llvm.lifetime.start.p0(i64 8, ptr %7) #10
  %10 = load ptr, ptr %4, align 8, !tbaa !15
  %11 = getelementptr inbounds ptr, ptr %10, i64 0
  %12 = load ptr, ptr %11, align 8, !tbaa !15
  store ptr %12, ptr %7, align 8, !tbaa !30
  call void @llvm.lifetime.start.p0(i64 4, ptr %8) #10
  %13 = load i32, ptr %6, align 4, !tbaa !8
  store i32 %13, ptr %8, align 4, !tbaa !8
  call void @llvm.lifetime.start.p0(i64 8, ptr %9) #10
  %14 = load ptr, ptr %7, align 8, !tbaa !30
  %15 = getelementptr inbounds nuw %struct.SqliteDb, ptr %14, i32 0, i32 30
  %16 = load i32, ptr %15, align 8, !tbaa !129
  %17 = add nsw i32 %16, -1
  store i32 %17, ptr %15, align 8, !tbaa !129
  %18 = load i32, ptr %8, align 4, !tbaa !8
  %19 = icmp eq i32 %18, 1
  %20 = zext i1 %19 to i32
  %21 = mul nsw i32 %20, 2
  %22 = load ptr, ptr %7, align 8, !tbaa !30
  %23 = getelementptr inbounds nuw %struct.SqliteDb, ptr %22, i32 0, i32 30
  %24 = load i32, ptr %23, align 8, !tbaa !129
  %25 = icmp eq i32 %24, 0
  %26 = zext i1 %25 to i32
  %27 = add nsw i32 %21, %26
  %28 = sext i32 %27 to i64
  %29 = getelementptr inbounds [4 x ptr], ptr @DbTransPostCmd.azEnd, i64 0, i64 %28
  %30 = load ptr, ptr %29, align 8, !tbaa !18
  store ptr %30, ptr %9, align 8, !tbaa !18
  %31 = load ptr, ptr %7, align 8, !tbaa !30
  %32 = getelementptr inbounds nuw %struct.SqliteDb, ptr %31, i32 0, i32 10
  %33 = load i32, ptr %32, align 8, !tbaa !130
  %34 = add nsw i32 %33, 1
  store i32 %34, ptr %32, align 8, !tbaa !130
  %35 = load ptr, ptr %7, align 8, !tbaa !30
  %36 = getelementptr inbounds nuw %struct.SqliteDb, ptr %35, i32 0, i32 0
  %37 = load ptr, ptr %36, align 8, !tbaa !34
  %38 = load ptr, ptr %9, align 8, !tbaa !18
  %39 = call i32 @sqlite3_exec(ptr noundef %37, ptr noundef %38, ptr noundef null, ptr noundef null, ptr noundef null)
  %40 = icmp ne i32 %39, 0
  br i1 %40, label %41, label %58

41:                                               ; preds = %3
  %42 = load i32, ptr %8, align 4, !tbaa !8
  %43 = icmp ne i32 %42, 1
  br i1 %43, label %44, label %53

44:                                               ; preds = %41
  %45 = load ptr, ptr @tclStubsPtr, align 8, !tbaa !10
  %46 = getelementptr inbounds nuw %struct.TclStubs, ptr %45, i32 0, i32 72
  %47 = load ptr, ptr %46, align 8, !tbaa !23
  %48 = load ptr, ptr %5, align 8, !tbaa !3
  %49 = load ptr, ptr %7, align 8, !tbaa !30
  %50 = getelementptr inbounds nuw %struct.SqliteDb, ptr %49, i32 0, i32 0
  %51 = load ptr, ptr %50, align 8, !tbaa !34
  %52 = call ptr @sqlite3_errmsg(ptr noundef %51)
  call void (ptr, ...) %47(ptr noundef %48, ptr noundef %52, ptr noundef null)
  store i32 1, ptr %8, align 4, !tbaa !8
  br label %53

53:                                               ; preds = %44, %41
  %54 = load ptr, ptr %7, align 8, !tbaa !30
  %55 = getelementptr inbounds nuw %struct.SqliteDb, ptr %54, i32 0, i32 0
  %56 = load ptr, ptr %55, align 8, !tbaa !34
  %57 = call i32 @sqlite3_exec(ptr noundef %56, ptr noundef @.str.121, ptr noundef null, ptr noundef null, ptr noundef null)
  br label %58

58:                                               ; preds = %53, %3
  %59 = load ptr, ptr %7, align 8, !tbaa !30
  %60 = getelementptr inbounds nuw %struct.SqliteDb, ptr %59, i32 0, i32 10
  %61 = load i32, ptr %60, align 8, !tbaa !130
  %62 = add nsw i32 %61, -1
  store i32 %62, ptr %60, align 8, !tbaa !130
  %63 = load ptr, ptr %7, align 8, !tbaa !30
  call void @delDatabaseRef(ptr noundef %63)
  %64 = load i32, ptr %8, align 4, !tbaa !8
  call void @llvm.lifetime.end.p0(i64 8, ptr %9) #10
  call void @llvm.lifetime.end.p0(i64 4, ptr %8) #10
  call void @llvm.lifetime.end.p0(i64 8, ptr %7) #10
  ret i32 %64
}