; Function Attrs: nounwind uwtable
define internal noundef i32 @DbTransPostCmd(ptr noundef readonly captures(none) %0, ptr noundef %1, i32 noundef %2) #0 {
  %4 = load ptr, ptr %0, align 8, !tbaa !44
  %5 = getelementptr inbounds nuw i8, ptr %4, i64 216
  %6 = load i32, ptr %5, align 8, !tbaa !117
  %7 = add nsw i32 %6, -1
  store i32 %7, ptr %5, align 8, !tbaa !117
  %8 = icmp eq i32 %2, 1
  %9 = select i1 %8, i64 2, i64 0
  %10 = icmp eq i32 %7, 0
  %11 = zext i1 %10 to i64
  %12 = or disjoint i64 %9, %11
  %13 = getelementptr inbounds nuw [4 x ptr], ptr @DbTransPostCmd.azEnd, i64 0, i64 %12
  %14 = load ptr, ptr %13, align 8, !tbaa !82
  %15 = getelementptr inbounds nuw i8, ptr %4, i64 80
  %16 = load i32, ptr %15, align 8, !tbaa !118
  %17 = add nsw i32 %16, 1
  store i32 %17, ptr %15, align 8, !tbaa !118
  %18 = load ptr, ptr %4, align 8, !tbaa !26
  %19 = tail call i32 @sqlite3_exec(ptr noundef %18, ptr noundef %14, ptr noundef null, ptr noundef null, ptr noundef null) #14
  %.not = icmp eq i32 %19, 0
  br i1 %.not, label %30, label %20

20:                                               ; preds = %3
  br i1 %8, label %27, label %21

21:                                               ; preds = %20
  %22 = load ptr, ptr @tclStubsPtr, align 8, !tbaa !3
  %23 = getelementptr inbounds nuw i8, ptr %22, i64 576
  %24 = load ptr, ptr %23, align 8, !tbaa !17
  %25 = load ptr, ptr %4, align 8, !tbaa !26
  %26 = tail call ptr @sqlite3_errmsg(ptr noundef %25) #14
  tail call void (ptr, ...) %24(ptr noundef %1, ptr noundef %26, ptr noundef null) #14
  br label %27

27:                                               ; preds = %21, %20
  %28 = load ptr, ptr %4, align 8, !tbaa !26
  %29 = tail call i32 @sqlite3_exec(ptr noundef %28, ptr noundef nonnull @.str.121, ptr noundef null, ptr noundef null, ptr noundef null) #14
  br label %30

30:                                               ; preds = %27, %3
  %.0 = phi i32 [ 1, %27 ], [ %2, %3 ]
  %31 = load i32, ptr %15, align 8, !tbaa !118
  %32 = add nsw i32 %31, -1
  store i32 %32, ptr %15, align 8, !tbaa !118
  tail call fastcc void @delDatabaseRef(ptr noundef nonnull %4)
  ret i32 %.0
}